target datalayout = "e-m:e-p270:32:32-p271:32:32-p272:64:64-i64:64-i128:128-f80:128-n8:16:32:64-S128"
target triple = "x86_64-pc-linux-gnu"

; Function Attrs: mustprogress nounwind uwtable
define internal void @_ZN2cvL9ExpandCCSEPhii(ptr noundef %0, i32 noundef %1, i32 noundef %2) #3 {
  %4 = alloca ptr, align 8
  %5 = alloca i32, align 4
  %6 = alloca i32, align 4
  %7 = alloca i32, align 4
  %8 = alloca ptr, align 8
  %9 = alloca ptr, align 8
  store ptr %0, ptr %4, align 8, !tbaa !61
  store i32 %1, ptr %5, align 4, !tbaa !3
  store i32 %2, ptr %6, align 4, !tbaa !3
  call void @llvm.lifetime.start.p0(i64 4, ptr %7) #19
  %10 = load i32, ptr %6, align 4, !tbaa !3
  %11 = icmp eq i32 %10, 4
  br i1 %11, label %12, label %98

12:                                               ; preds = %3
  call void @llvm.lifetime.start.p0(i64 8, ptr %8) #19
  %13 = load ptr, ptr %4, align 8, !tbaa !61
  store ptr %13, ptr %8, align 8, !tbaa !126
  store i32 1, ptr %7, align 4, !tbaa !3
  br label %14

14:                                               ; preds = %50, %12
  %15 = load i32, ptr %7, align 4, !tbaa !3
  %16 = load i32, ptr %5, align 4, !tbaa !3
  %17 = add nsw i32 %16, 1
  %18 = sdiv i32 %17, 2
  %19 = icmp slt i32 %15, %18
  br i1 %19, label %20, label %53

20:                                               ; preds = %14
  %21 = load ptr, ptr %8, align 8, !tbaa !126
  %22 = load i32, ptr %7, align 4, !tbaa !3
  %23 = mul nsw i32 %22, 2
  %24 = sub nsw i32 %23, 1
  %25 = sext i32 %24 to i64
  %26 = getelementptr inbounds float, ptr %21, i64 %25
  %27 = load float, ptr %26, align 4, !tbaa !200
  %28 = load ptr, ptr %8, align 8, !tbaa !126
  %29 = load i32, ptr %5, align 4, !tbaa !3
  %30 = load i32, ptr %7, align 4, !tbaa !3
  %31 = sub nsw i32 %29, %30
  %32 = mul nsw i32 %31, 2
  %33 = sext i32 %32 to i64
  %34 = getelementptr inbounds float, ptr %28, i64 %33
  store float %27, ptr %34, align 4, !tbaa !200
  %35 = load ptr, ptr %8, align 8, !tbaa !126
  %36 = load i32, ptr %7, align 4, !tbaa !3
  %37 = mul nsw i32 %36, 2
  %38 = sext i32 %37 to i64
  %39 = getelementptr inbounds float, ptr %35, i64 %38
  %40 = load float, ptr %39, align 4, !tbaa !200
  %41 = fneg float %40
  %42 = load ptr, ptr %8, align 8, !tbaa !126
  %43 = load i32, ptr %5, align 4, !tbaa !3
  %44 = load i32, ptr %7, align 4, !tbaa !3
  %45 = sub nsw i32 %43, %44
  %46 = mul nsw i32 %45, 2
  %47 = add nsw i32 %46, 1
  %48 = sext i32 %47 to i64
  %49 = getelementptr inbounds float, ptr %42, i64 %48
  store float %41, ptr %49, align 4, !tbaa !200
  br label %50

50:                                               ; preds = %20
  %51 = load i32, ptr %7, align 4, !tbaa !3
  %52 = add nsw i32 %51, 1
  store i32 %52, ptr %7, align 4, !tbaa !3
  br label %14, !llvm.loop !364

53:                                               ; preds = %14
  %54 = load i32, ptr %5, align 4, !tbaa !3
  %55 = and i32 %54, 1
  %56 = icmp eq i32 %55, 0
  br i1 %56, label %57, label %75

57:                                               ; preds = %53
  %58 = load ptr, ptr %8, align 8, !tbaa !126
  %59 = load i32, ptr %5, align 4, !tbaa !3
  %60 = sub nsw i32 %59, 1
  %61 = sext i32 %60 to i64
  %62 = getelementptr inbounds float, ptr %58, i64 %61
  %63 = load float, ptr %62, align 4, !tbaa !200
  %64 = load ptr, ptr %8, align 8, !tbaa !126
  %65 = load i32, ptr %5, align 4, !tbaa !3
  %66 = sext i32 %65 to i64
  %67 = getelementptr inbounds float, ptr %64, i64 %66
  store float %63, ptr %67, align 4, !tbaa !200
  %68 = load ptr, ptr %8, align 8, !tbaa !126
  %69 = load i32, ptr %5, align 4, !tbaa !3
  %70 = add nsw i32 %69, 1
  %71 = sext i32 %70 to i64
  %72 = getelementptr inbounds float, ptr %68, i64 %71
  store float 0.000000e+00, ptr %72, align 4, !tbaa !200
  %73 = load i32, ptr %5, align 4, !tbaa !3
  %74 = add nsw i32 %73, -1
  store i32 %74, ptr %5, align 4, !tbaa !3
  br label %75

75:                                               ; preds = %57, %53
  %76 = load i32, ptr %5, align 4, !tbaa !3
  %77 = sub nsw i32 %76, 1
  store i32 %77, ptr %7, align 4, !tbaa !3
  br label %78

78:                                               ; preds = %92, %75
  %79 = load i32, ptr %7, align 4, !tbaa !3
  %80 = icmp sgt i32 %79, 0
  br i1 %80, label %81, label %95

81:                                               ; preds = %78
  %82 = load ptr, ptr %8, align 8, !tbaa !126
  %83 = load i32, ptr %7, align 4, !tbaa !3
  %84 = sext i32 %83 to i64
  %85 = getelementptr inbounds float, ptr %82, i64 %84
  %86 = load float, ptr %85, align 4, !tbaa !200
  %87 = load ptr, ptr %8, align 8, !tbaa !126
  %88 = load i32, ptr %7, align 4, !tbaa !3
  %89 = add nsw i32 %88, 1
  %90 = sext i32 %89 to i64
  %91 = getelementptr inbounds float, ptr %87, i64 %90
  store float %86, ptr %91, align 4, !tbaa !200
  br label %92

92:                                               ; preds = %81
  %93 = load i32, ptr %7, align 4, !tbaa !3
  %94 = add nsw i32 %93, -1
  store i32 %94, ptr %7, align 4, !tbaa !3
  br label %78, !llvm.loop !365

95:                                               ; preds = %78
  %96 = load ptr, ptr %8, align 8, !tbaa !126
  %97 = getelementptr inbounds float, ptr %96, i64 1
  store float 0.000000e+00, ptr %97, align 4, !tbaa !200
  call void @llvm.lifetime.end.p0(i64 8, ptr %8) #19
  br label %184

98:                                               ; preds = %3
  call void @llvm.lifetime.start.p0(i64 8, ptr %9) #19
  %99 = load ptr, ptr %4, align 8, !tbaa !61
  store ptr %99, ptr %9, align 8, !tbaa !128
  store i32 1, ptr %7, align 4, !tbaa !3
  br label %100

100:                                              ; preds = %136, %98
  %101 = load i32, ptr %7, align 4, !tbaa !3
  %102 = load i32, ptr %5, align 4, !tbaa !3
  %103 = add nsw i32 %102, 1
  %104 = sdiv i32 %103, 2
  %105 = icmp slt i32 %101, %104
  br i1 %105, label %106, label %139

106:                                              ; preds = %100
  %107 = load ptr, ptr %9, align 8, !tbaa !128
  %108 = load i32, ptr %7, align 4, !tbaa !3
  %109 = mul nsw i32 %108, 2
  %110 = sub nsw i32 %109, 1
  %111 = sext i32 %110 to i64
  %112 = getelementptr inbounds double, ptr %107, i64 %111
  %113 = load double, ptr %112, align 8, !tbaa !198
  %114 = load ptr, ptr %9, align 8, !tbaa !128
  %115 = load i32, ptr %5, align 4, !tbaa !3
  %116 = load i32, ptr %7, align 4, !tbaa !3
  %117 = sub nsw i32 %115, %116
  %118 = mul nsw i32 %117, 2
  %119 = sext i32 %118 to i64
  %120 = getelementptr inbounds double, ptr %114, i64 %119
  store double %113, ptr %120, align 8, !tbaa !198
  %121 = load ptr, ptr %9, align 8, !tbaa !128
  %122 = load i32, ptr %7, align 4, !tbaa !3
  %123 = mul nsw i32 %122, 2
  %124 = sext i32 %123 to i64
  %125 = getelementptr inbounds double, ptr %121, i64 %124
  %126 = load double, ptr %125, align 8, !tbaa !198
  %127 = fneg double %126
  %128 = load ptr, ptr %9, align 8, !tbaa !128
  %129 = load i32, ptr %5, align 4, !tbaa !3
  %130 = load i32, ptr %7, align 4, !tbaa !3
  %131 = sub nsw i32 %129, %130
  %132 = mul nsw i32 %131, 2
  %133 = add nsw i32 %132, 1
  %134 = sext i32 %133 to i64
  %135 = getelementptr inbounds double, ptr %128, i64 %134
  store double %127, ptr %135, align 8, !tbaa !198
  br label %136

136:                                              ; preds = %106
  %137 = load i32, ptr %7, align 4, !tbaa !3
  %138 = add nsw i32 %137, 1
  store i32 %138, ptr %7, align 4, !tbaa !3
  br label %100, !llvm.loop !366

139:                                              ; preds = %100
  %140 = load i32, ptr %5, align 4, !tbaa !3
  %141 = and i32 %140, 1
  %142 = icmp eq i32 %141, 0
  br i1 %142, label %143, label %161

143:                                              ; preds = %139
  %144 = load ptr, ptr %9, align 8, !tbaa !128
  %145 = load i32, ptr %5, align 4, !tbaa !3
  %146 = sub nsw i32 %145, 1
  %147 = sext i32 %146 to i64
  %148 = getelementptr inbounds double, ptr %144, i64 %147
  %149 = load double, ptr %148, align 8, !tbaa !198
  %150 = load ptr, ptr %9, align 8, !tbaa !128
  %151 = load i32, ptr %5, align 4, !tbaa !3
  %152 = sext i32 %151 to i64
  %153 = getelementptr inbounds double, ptr %150, i64 %152
  store double %149, ptr %153, align 8, !tbaa !198
  %154 = load ptr, ptr %9, align 8, !tbaa !128
  %155 = load i32, ptr %5, align 4, !tbaa !3
  %156 = add nsw i32 %155, 1
  %157 = sext i32 %156 to i64
  %158 = getelementptr inbounds double, ptr %154, i64 %157
  store double 0.000000e+00, ptr %158, align 8, !tbaa !198
  %159 = load i32, ptr %5, align 4, !tbaa !3
  %160 = add nsw i32 %159, -1
  store i32 %160, ptr %5, align 4, !tbaa !3
  br label %161

161:                                              ; preds = %143, %139
  %162 = load i32, ptr %5, align 4, !tbaa !3
  %163 = sub nsw i32 %162, 1
  store i32 %163, ptr %7, align 4, !tbaa !3
  br label %164

164:                                              ; preds = %178, %161
  %165 = load i32, ptr %7, align 4, !tbaa !3
  %166 = icmp sgt i32 %165, 0
  br i1 %166, label %167, label %181

167:                                              ; preds = %164
  %168 = load ptr, ptr %9, align 8, !tbaa !128
  %169 = load i32, ptr %7, align 4, !tbaa !3
  %170 = sext i32 %169 to i64
  %171 = getelementptr inbounds double, ptr %168, i64 %170
  %172 = load double, ptr %171, align 8, !tbaa !198
  %173 = load ptr, ptr %9, align 8, !tbaa !128
  %174 = load i32, ptr %7, align 4, !tbaa !3
  %175 = add nsw i32 %174, 1
  %176 = sext i32 %175 to i64
  %177 = getelementptr inbounds double, ptr %173, i64 %176
  store double %172, ptr %177, align 8, !tbaa !198
  br label %178

178:                                              ; preds = %167
  %179 = load i32, ptr %7, align 4, !tbaa !3
  %180 = add nsw i32 %179, -1
  store i32 %180, ptr %7, align 4, !tbaa !3
  br label %164, !llvm.loop !367

181:                                              ; preds = %164
  %182 = load ptr, ptr %9, align 8, !tbaa !128
  %183 = getelementptr inbounds double, ptr %182, i64 1
  store double 0.000000e+00, ptr %183, align 8, !tbaa !198
  call void @llvm.lifetime.end.p0(i64 8, ptr %9) #19
  br label %184

184:                                              ; preds = %181, %95
  call void @llvm.lifetime.end.p0(i64 4, ptr %7) #19
  ret void
}