; Function Attrs: mustprogress nofree norecurse nosync nounwind memory(argmem: readwrite) uwtable
define internal fastcc void @_ZN2cvL9ExpandCCSEPhii(ptr noundef captures(none) %0, i32 noundef %1, i32 noundef %2) unnamed_addr #17 {
  %4 = icmp eq i32 %2, 4
  %5 = add nsw i32 %1, 1
  %6 = icmp sgt i32 %1, 2
  br i1 %4, label %.preheader, label %.preheader62

.preheader62:                                     ; preds = %3
  br i1 %6, label %.lr.ph.preheader, label %._crit_edge

.lr.ph.preheader:                                 ; preds = %.preheader62
  %7 = lshr i32 %5, 1
  %8 = zext nneg i32 %1 to i64
  %wide.trip.count = zext nneg i32 %7 to i64
  br label %.lr.ph

.preheader:                                       ; preds = %3
  br i1 %6, label %.lr.ph70.preheader, label %._crit_edge71

.lr.ph70.preheader:                               ; preds = %.preheader
  %9 = lshr i32 %5, 1
  %10 = zext nneg i32 %1 to i64
  %wide.trip.count86 = zext nneg i32 %9 to i64
  br label %.lr.ph70

.lr.ph70:                                         ; preds = %.lr.ph70.preheader, %.lr.ph70
  %indvars.iv82 = phi i64 [ 1, %.lr.ph70.preheader ], [ %indvars.iv.next83, %.lr.ph70 ]
  %.idx92 = shl i64 %indvars.iv82, 3
  %11 = getelementptr i8, ptr %0, i64 %.idx92
  %12 = getelementptr i8, ptr %11, i64 -4
  %13 = load float, ptr %12, align 4, !tbaa !130
  %14 = sub nsw i64 %10, %indvars.iv82
  %15 = shl nsw i64 %14, 1
  %16 = getelementptr inbounds float, ptr %0, i64 %15
  store float %13, ptr %16, align 4, !tbaa !130
  %17 = load float, ptr %11, align 4, !tbaa !130
  %18 = fneg float %17
  %19 = or disjoint i64 %15, 1
  %20 = getelementptr inbounds float, ptr %0, i64 %19
  store float %18, ptr %20, align 4, !tbaa !130
  %indvars.iv.next83 = add nuw nsw i64 %indvars.iv82, 1
  %exitcond87.not = icmp eq i64 %indvars.iv.next83, %wide.trip.count86
  br i1 %exitcond87.not, label %._crit_edge71, label %.lr.ph70, !llvm.loop !308

._crit_edge71:                                    ; preds = %.lr.ph70, %.preheader
  %21 = and i32 %1, 1
  %22 = icmp eq i32 %21, 0
  br i1 %22, label %23, label %31

23:                                               ; preds = %._crit_edge71
  %24 = sext i32 %1 to i64
  %25 = getelementptr float, ptr %0, i64 %24
  %26 = getelementptr i8, ptr %25, i64 -4
  %27 = load float, ptr %26, align 4, !tbaa !130
  store float %27, ptr %25, align 4, !tbaa !130
  %28 = sext i32 %5 to i64
  %29 = getelementptr inbounds float, ptr %0, i64 %28
  store float 0.000000e+00, ptr %29, align 4, !tbaa !130
  %30 = add nsw i32 %1, -1
  br label %31

31:                                               ; preds = %23, %._crit_edge71
  %.0 = phi i32 [ %30, %23 ], [ %1, %._crit_edge71 ]
  %32 = icmp sgt i32 %.0, 1
  br i1 %32, label %.lr.ph75.preheader, label %._crit_edge76

.lr.ph75.preheader:                               ; preds = %31
  %33 = zext nneg i32 %.0 to i64
  br label %.lr.ph75

.lr.ph75:                                         ; preds = %.lr.ph75.preheader, %.lr.ph75
  %indvars.iv89 = phi i64 [ %33, %.lr.ph75.preheader ], [ %indvars.iv.next90, %.lr.ph75 ]
  %indvars.iv.next90 = add nsw i64 %indvars.iv89, -1
  %34 = getelementptr inbounds nuw float, ptr %0, i64 %indvars.iv.next90
  %35 = load float, ptr %34, align 4, !tbaa !130
  %36 = getelementptr inbounds nuw float, ptr %0, i64 %indvars.iv89
  store float %35, ptr %36, align 4, !tbaa !130
  %37 = icmp samesign ugt i64 %indvars.iv89, 2
  br i1 %37, label %.lr.ph75, label %._crit_edge76, !llvm.loop !309

._crit_edge76:                                    ; preds = %.lr.ph75, %31
  %38 = getelementptr inbounds nuw i8, ptr %0, i64 4
  store float 0.000000e+00, ptr %38, align 4, !tbaa !130
  br label %67

.lr.ph:                                           ; preds = %.lr.ph.preheader, %.lr.ph
  %indvars.iv = phi i64 [ 1, %.lr.ph.preheader ], [ %indvars.iv.next, %.lr.ph ]
  %.idx = shl i64 %indvars.iv, 4
  %39 = getelementptr i8, ptr %0, i64 %.idx
  %40 = getelementptr i8, ptr %39, i64 -8
  %41 = load double, ptr %40, align 8, !tbaa !144
  %42 = sub nsw i64 %8, %indvars.iv
  %43 = shl nsw i64 %42, 1
  %44 = getelementptr inbounds double, ptr %0, i64 %43
  store double %41, ptr %44, align 8, !tbaa !144
  %45 = load double, ptr %39, align 8, !tbaa !144
  %46 = fneg double %45
  %47 = or disjoint i64 %43, 1
  %48 = getelementptr inbounds double, ptr %0, i64 %47
  store double %46, ptr %48, align 8, !tbaa !144
  %indvars.iv.next = add nuw nsw i64 %indvars.iv, 1
  %exitcond.not = icmp eq i64 %indvars.iv.next, %wide.trip.count
  br i1 %exitcond.not, label %._crit_edge, label %.lr.ph, !llvm.loop !310

._crit_edge:                                      ; preds = %.lr.ph, %.preheader62
  %49 = and i32 %1, 1
  %50 = icmp eq i32 %49, 0
  br i1 %50, label %51, label %59

51:                                               ; preds = %._crit_edge
  %52 = sext i32 %1 to i64
  %53 = getelementptr double, ptr %0, i64 %52
  %54 = getelementptr i8, ptr %53, i64 -8
  %55 = load double, ptr %54, align 8, !tbaa !144
  store double %55, ptr %53, align 8, !tbaa !144
  %56 = sext i32 %5 to i64
  %57 = getelementptr inbounds double, ptr %0, i64 %56
  store double 0.000000e+00, ptr %57, align 8, !tbaa !144
  %58 = add nsw i32 %1, -1
  br label %59

59:                                               ; preds = %51, %._crit_edge
  %.1 = phi i32 [ %58, %51 ], [ %1, %._crit_edge ]
  %60 = icmp sgt i32 %.1, 1
  br i1 %60, label %.lr.ph67.preheader, label %._crit_edge68

.lr.ph67.preheader:                               ; preds = %59
  %61 = zext nneg i32 %.1 to i64
  br label %.lr.ph67

.lr.ph67:                                         ; preds = %.lr.ph67.preheader, %.lr.ph67
  %indvars.iv79 = phi i64 [ %61, %.lr.ph67.preheader ], [ %indvars.iv.next80, %.lr.ph67 ]
  %indvars.iv.next80 = add nsw i64 %indvars.iv79, -1
  %62 = getelementptr inbounds nuw double, ptr %0, i64 %indvars.iv.next80
  %63 = load double, ptr %62, align 8, !tbaa !144
  %64 = getelementptr inbounds nuw double, ptr %0, i64 %indvars.iv79
  store double %63, ptr %64, align 8, !tbaa !144
  %65 = icmp samesign ugt i64 %indvars.iv79, 2
  br i1 %65, label %.lr.ph67, label %._crit_edge68, !llvm.loop !311

._crit_edge68:                                    ; preds = %.lr.ph67, %59
  %66 = getelementptr inbounds nuw i8, ptr %0, i64 8
  store double 0.000000e+00, ptr %66, align 8, !tbaa !144
  br label %67

67:                                               ; preds = %._crit_edge68, %._crit_edge76
  ret void
}